target datalayout = "e-m:e-p270:32:32-p271:32:32-p272:64:64-i64:64-i128:128-f80:128-n8:16:32:64-S128"
target triple = "x86_64-pc-linux-gnu"

%struct._object = type { %union.anon, ptr }
%union.anon = type { i64 }

@.str.65 = private unnamed_addr constant [40 x i8] c"../cpython/Modules/_testcapi/pyatomic.c\00", align 1
@_Py_NoneStruct = external global %struct._object, align 8
@.str.246 = private unnamed_addr constant [51 x i8] c"_Py_atomic_exchange_uint(&x, y) == (unsigned int)0\00", align 1
@__PRETTY_FUNCTION__.test_atomic_exchange_uint = private unnamed_addr constant [60 x i8] c"PyObject *test_atomic_exchange_uint(PyObject *, PyObject *)\00", align 1
@.str.247 = private unnamed_addr constant [21 x i8] c"x == (unsigned int)1\00", align 1
@.str.248 = private unnamed_addr constant [51 x i8] c"_Py_atomic_exchange_uint(&x, z) == (unsigned int)1\00", align 1
@.str.249 = private unnamed_addr constant [21 x i8] c"x == (unsigned int)2\00", align 1
@.str.250 = private unnamed_addr constant [51 x i8] c"_Py_atomic_exchange_uint(&x, y) == (unsigned int)2\00", align 1

; Function Attrs: inlinehint nounwind uwtable
define internal i32 @_Py_atomic_exchange_uint(ptr noundef %0, i32 noundef %1) #3 {
  %3 = alloca ptr, align 8
  %4 = alloca i32, align 4
  %5 = alloca i32, align 4
  %6 = alloca i32, align 4
  store ptr %0, ptr %3, align 8, !tbaa !20
  store i32 %1, ptr %4, align 4, !tbaa !11
  %7 = load ptr, ptr %3, align 8, !tbaa !20
  %8 = load i32, ptr %4, align 4, !tbaa !11
  store i32 %8, ptr %5, align 4, !tbaa !11
  %9 = load i32, ptr %5, align 4
  %10 = atomicrmw xchg ptr %7, i32 %9 seq_cst, align 4
  store i32 %10, ptr %6, align 4
  %11 = load i32, ptr %6, align 4, !tbaa !11
  ret i32 %11
}

; Function Attrs: nounwind uwtable
define internal ptr @test_atomic_exchange_uint(ptr noundef %0, ptr noundef %1) #0 {
  %3 = alloca ptr, align 8
  %4 = alloca ptr, align 8
  %5 = alloca i32, align 4
  %6 = alloca i32, align 4
  %7 = alloca i32, align 4
  store ptr %0, ptr %3, align 8, !tbaa !3
  store ptr %1, ptr %4, align 8, !tbaa !3
  call void @llvm.lifetime.start.p0(i64 4, ptr %5) #5
  store i32 0, ptr %5, align 4, !tbaa !11
  call void @llvm.lifetime.start.p0(i64 4, ptr %6) #5
  store i32 1, ptr %6, align 4, !tbaa !11
  call void @llvm.lifetime.start.p0(i64 4, ptr %7) #5
  store i32 2, ptr %7, align 4, !tbaa !11
  %8 = load i32, ptr %6, align 4, !tbaa !11
  %9 = call i32 @_Py_atomic_exchange_uint(ptr noundef %5, i32 noundef %8)
  %10 = icmp eq i32 %9, 0
  br i1 %10, label %11, label %12

11:                                               ; preds = %2
  br label %14

12:                                               ; preds = %2
  call void @__assert_fail(ptr noundef @.str.246, ptr noundef @.str.65, i32 noundef 89, ptr noundef @__PRETTY_FUNCTION__.test_atomic_exchange_uint) #6
  unreachable

13:                                               ; No predecessors!
  br label %14

14:                                               ; preds = %13, %11
  %15 = load i32, ptr %5, align 4, !tbaa !11
  %16 = icmp eq i32 %15, 1
  br i1 %16, label %17, label %18

17:                                               ; preds = %14
  br label %20

18:                                               ; preds = %14
  call void @__assert_fail(ptr noundef @.str.247, ptr noundef @.str.65, i32 noundef 89, ptr noundef @__PRETTY_FUNCTION__.test_atomic_exchange_uint) #6
  unreachable

19:                                               ; No predecessors!
  br label %20

20:                                               ; preds = %19, %17
  %21 = load i32, ptr %7, align 4, !tbaa !11
  %22 = call i32 @_Py_atomic_exchange_uint(ptr noundef %5, i32 noundef %21)
  %23 = icmp eq i32 %22, 1
  br i1 %23, label %24, label %25

24:                                               ; preds = %20
  br label %27

25:                                               ; preds = %20
  call void @__assert_fail(ptr noundef @.str.248, ptr noundef @.str.65, i32 noundef 89, ptr noundef @__PRETTY_FUNCTION__.test_atomic_exchange_uint) #6
  unreachable

26:                                               ; No predecessors!
  br label %27

27:                                               ; preds = %26, %24
  %28 = load i32, ptr %5, align 4, !tbaa !11
  %29 = icmp eq i32 %28, 2
  br i1 %29, label %30, label %31

30:                                               ; preds = %27
  br label %33

31:                                               ; preds = %27
  call void @__assert_fail(ptr noundef @.str.249, ptr noundef @.str.65, i32 noundef 89, ptr noundef @__PRETTY_FUNCTION__.test_atomic_exchange_uint) #6
  unreachable

32:                                               ; No predecessors!
  br label %33

33:                                               ; preds = %32, %30
  %34 = load i32, ptr %6, align 4, !tbaa !11
  %35 = call i32 @_Py_atomic_exchange_uint(ptr noundef %5, i32 noundef %34)
  %36 = icmp eq i32 %35, 2
  br i1 %36, label %37, label %38

37:                                               ; preds = %33
  br label %40

38:                                               ; preds = %33
  call void @__assert_fail(ptr noundef @.str.250, ptr noundef @.str.65, i32 noundef 89, ptr noundef @__PRETTY_FUNCTION__.test_atomic_exchange_uint) #6
  unreachable

39:                                               ; No predecessors!
  br label %40

40:                                               ; preds = %39, %37
  %41 = load i32, ptr %5, align 4, !tbaa !11
  %42 = icmp eq i32 %41, 1
  br i1 %42, label %43, label %44

43:                                               ; preds = %40
  br label %46

44:                                               ; preds = %40
  call void @__assert_fail(ptr noundef @.str.247, ptr noundef @.str.65, i32 noundef 89, ptr noundef @__PRETTY_FUNCTION__.test_atomic_exchange_uint) #6
  unreachable

45:                                               ; No predecessors!
  br label %46

46:                                               ; preds = %45, %43
  call void @llvm.lifetime.end.p0(i64 4, ptr %7) #5
  call void @llvm.lifetime.end.p0(i64 4, ptr %6) #5
  call void @llvm.lifetime.end.p0(i64 4, ptr %5) #5
  ret ptr @_Py_NoneStruct
}