; Function Attrs: nounwind uwtable
define internal noundef nonnull ptr @test_atomic_exchange_uint(ptr readnone captures(none) %0, ptr readnone captures(none) %1) #0 {
  %3 = alloca i32, align 4
  call void @llvm.lifetime.start.p0(i64 4, ptr nonnull %3) #6
  store i32 0, ptr %3, align 4, !tbaa !8
  %4 = atomicrmw xchg ptr %3, i32 1 seq_cst, align 4
  %5 = icmp eq i32 %4, 0
  br i1 %5, label %7, label %6

6:                                                ; preds = %2
  call void @__assert_fail(ptr noundef nonnull @.str.246, ptr noundef nonnull @.str.65, i32 noundef 89, ptr noundef nonnull @__PRETTY_FUNCTION__.test_atomic_exchange_uint) #7
  unreachable

7:                                                ; preds = %2
  %8 = load i32, ptr %3, align 4, !tbaa !8
  %9 = icmp eq i32 %8, 1
  br i1 %9, label %11, label %10

10:                                               ; preds = %7
  call void @__assert_fail(ptr noundef nonnull @.str.247, ptr noundef nonnull @.str.65, i32 noundef 89, ptr noundef nonnull @__PRETTY_FUNCTION__.test_atomic_exchange_uint) #7
  unreachable

11:                                               ; preds = %7
  %12 = atomicrmw xchg ptr %3, i32 2 seq_cst, align 4
  %13 = icmp eq i32 %12, 1
  br i1 %13, label %15, label %14

14:                                               ; preds = %11
  call void @__assert_fail(ptr noundef nonnull @.str.248, ptr noundef nonnull @.str.65, i32 noundef 89, ptr noundef nonnull @__PRETTY_FUNCTION__.test_atomic_exchange_uint) #7
  unreachable

15:                                               ; preds = %11
  %16 = load i32, ptr %3, align 4, !tbaa !8
  %17 = icmp eq i32 %16, 2
  br i1 %17, label %19, label %18

18:                                               ; preds = %15
  call void @__assert_fail(ptr noundef nonnull @.str.249, ptr noundef nonnull @.str.65, i32 noundef 89, ptr noundef nonnull @__PRETTY_FUNCTION__.test_atomic_exchange_uint) #7
  unreachable

19:                                               ; preds = %15
  %20 = atomicrmw xchg ptr %3, i32 1 seq_cst, align 4
  %21 = icmp eq i32 %20, 2
  br i1 %21, label %23, label %22

22:                                               ; preds = %19
  call void @__assert_fail(ptr noundef nonnull @.str.250, ptr noundef nonnull @.str.65, i32 noundef 89, ptr noundef nonnull @__PRETTY_FUNCTION__.test_atomic_exchange_uint) #7
  unreachable

23:                                               ; preds = %19
  %24 = load i32, ptr %3, align 4, !tbaa !8
  %25 = icmp eq i32 %24, 1
  br i1 %25, label %27, label %26

26:                                               ; preds = %23
  call void @__assert_fail(ptr noundef nonnull @.str.247, ptr noundef nonnull @.str.65, i32 noundef 89, ptr noundef nonnull @__PRETTY_FUNCTION__.test_atomic_exchange_uint) #7
  unreachable

27:                                               ; preds = %23
  call void @llvm.lifetime.end.p0(i64 4, ptr nonnull %3) #6
  ret ptr @_Py_NoneStruct
}